target datalayout = "e-m:e-p270:32:32-p271:32:32-p272:64:64-i64:64-i128:128-f80:128-n8:16:32:64-S128"
target triple = "x86_64-pc-linux-gnu"

@.str = private unnamed_addr constant [13 x i8] c"stdoutwriter\00", align 1
@avtextwriter_stdout = internal constant { ptr, i32, [4 x i8], ptr, ptr, ptr, ptr, ptr, ptr } { ptr @stdoutwriter_class, i32 8, [4 x i8] zeroinitializer, ptr @.str, ptr null, ptr null, ptr @stdout_w8, ptr @stdout_put_str, ptr @stdout_vprintf }, align 8
@stdoutwriter_class = internal constant { ptr, ptr, ptr, i32, i32, i32, i32, ptr, ptr, ptr, ptr, i32, [4 x i8] } { ptr @.str, ptr @stdoutwriter_get_name, ptr null, i32 0, i32 0, i32 0, i32 0, ptr null, ptr null, ptr null, ptr null, i32 0, [4 x i8] zeroinitializer }, align 8
@.str.3 = private unnamed_addr constant [3 x i8] c"%c\00", align 1
@.str.4 = private unnamed_addr constant [3 x i8] c"%s\00", align 1
@stdout = external global ptr, align 8

; Function Attrs: nounwind uwtable
define i32 @avtextwriter_create_stdout(ptr noundef %0) #0 {
  %2 = alloca ptr, align 8
  %3 = alloca i32, align 4
  store ptr %0, ptr %2, align 8, !tbaa !4
  call void @llvm.lifetime.start.p0(i64 4, ptr %3) #5
  %4 = load ptr, ptr %2, align 8, !tbaa !4
  %5 = call i32 @avtextwriter_context_open(ptr noundef %4, ptr noundef @avtextwriter_stdout)
  store i32 %5, ptr %3, align 4, !tbaa !10
  %6 = load i32, ptr %3, align 4, !tbaa !10
  call void @llvm.lifetime.end.p0(i64 4, ptr %3) #5
  ret i32 %6
}

; Function Attrs: nocallback nofree nosync nounwind willreturn memory(argmem: readwrite)
declare void @llvm.lifetime.start.p0(i64 immarg, ptr captures(none)) #1

declare i32 @avtextwriter_context_open(ptr noundef, ptr noundef) #2

; Function Attrs: nocallback nofree nosync nounwind willreturn memory(argmem: readwrite)
declare void @llvm.lifetime.end.p0(i64 immarg, ptr captures(none)) #1

; Function Attrs: inlinehint nounwind uwtable
define internal void @stdout_w8(ptr noundef %0, i32 noundef %1) #3 {
  %3 = alloca ptr, align 8
  %4 = alloca i32, align 4
  store ptr %0, ptr %3, align 8, !tbaa !12
  store i32 %1, ptr %4, align 4, !tbaa !10
  %5 = load i32, ptr %4, align 4, !tbaa !10
  %6 = call i32 (ptr, ...) @printf(ptr noundef @.str.3, i32 noundef %5)
  ret void
}

; Function Attrs: inlinehint nounwind uwtable
define internal void @stdout_put_str(ptr noundef %0, ptr noundef %1) #3 {
  %3 = alloca ptr, align 8
  %4 = alloca ptr, align 8
  store ptr %0, ptr %3, align 8, !tbaa !12
  store ptr %1, ptr %4, align 8, !tbaa !14
  %5 = load ptr, ptr %4, align 8, !tbaa !14
  %6 = call i32 (ptr, ...) @printf(ptr noundef @.str.4, ptr noundef %5)
  ret void
}

; Function Attrs: inlinehint nounwind uwtable
define internal void @stdout_vprintf(ptr noundef %0, ptr noundef %1, ptr noundef %2) #3 {
  %4 = alloca ptr, align 8
  %5 = alloca ptr, align 8
  %6 = alloca ptr, align 8
  store ptr %0, ptr %4, align 8, !tbaa !12
  store ptr %1, ptr %5, align 8, !tbaa !14
  store ptr %2, ptr %6, align 8, !tbaa !16
  %7 = load ptr, ptr %5, align 8, !tbaa !14
  %8 = load ptr, ptr %6, align 8, !tbaa !16
  %9 = call i32 @vprintf(ptr noundef %7, ptr noundef %8) #5
  ret void
}

; Function Attrs: nounwind uwtable
define internal ptr @stdoutwriter_get_name(ptr noundef %0) #0 {
  %2 = alloca ptr, align 8
  store ptr %0, ptr %2, align 8, !tbaa !18
  ret ptr @.str
}

declare i32 @printf(ptr noundef, ...) #2

; Function Attrs: inlinehint nounwind uwtable
define available_externally i32 @vprintf(ptr noalias noundef %0, ptr noundef %1) #3 {
  %3 = alloca ptr, align 8
  %4 = alloca ptr, align 8
  store ptr %0, ptr %3, align 8, !tbaa !14
  store ptr %1, ptr %4, align 8, !tbaa !16
  %5 = load ptr, ptr @stdout, align 8, !tbaa !19
  %6 = load ptr, ptr %3, align 8, !tbaa !14
  %7 = load ptr, ptr %4, align 8, !tbaa !16
  %8 = call i32 @vfprintf(ptr noundef %5, ptr noundef %6, ptr noundef %7) #5
  ret i32 %8
}

; Function Attrs: nounwind
declare i32 @vfprintf(ptr noundef, ptr noundef, ptr noundef) #4


!llvm.module.flags = !{!0, !1, !2, !3}

!0 = !{i32 1, !"wchar_size", i32 4}
!1 = !{i32 8, !"PIC Level", i32 2}
!2 = !{i32 7, !"uwtable", i32 2}
!3 = !{i32 1, !"override-stack-alignment", i32 16}
!4 = !{!5, !5, i64 0}
!5 = !{!"p2 _ZTS19AVTextWriterContext", !6, i64 0}
!6 = !{!"any p2 pointer", !7, i64 0}
!7 = !{!"any pointer", !8, i64 0}
!8 = !{!"omnipotent char", !9, i64 0}
!9 = !{!"Simple C/C++ TBAA"}
!10 = !{!11, !11, i64 0}
!11 = !{!"int", !8, i64 0}
!12 = !{!13, !13, i64 0}
!13 = !{!"p1 _ZTS19AVTextWriterContext", !7, i64 0}
!14 = !{!15, !15, i64 0}
!15 = !{!"p1 omnipotent char", !7, i64 0}
!16 = !{!17, !17, i64 0}
!17 = !{!"p1 _ZTS13__va_list_tag", !7, i64 0}
!18 = !{!7, !7, i64 0}
!19 = !{!20, !20, i64 0}
!20 = !{!"p1 _ZTS8_IO_FILE", !7, i64 0}
