; ModuleID = 'bench/ffmpeg/original/tw_stdout.ll'
source_filename = "bench/ffmpeg/original/tw_stdout.ll"
target datalayout = "e-m:e-p270:32:32-p271:32:32-p272:64:64-i64:64-i128:128-f80:128-n8:16:32:64-S128"
target triple = "x86_64-pc-linux-gnu"

@.str = private unnamed_addr constant [13 x i8] c"stdoutwriter\00", align 1
@avtextwriter_stdout = internal constant { ptr, i32, [4 x i8], ptr, ptr, ptr, ptr, ptr, ptr } { ptr @stdoutwriter_class, i32 8, [4 x i8] zeroinitializer, ptr @.str, ptr null, ptr null, ptr @stdout_w8, ptr @stdout_put_str, ptr @stdout_vprintf }, align 8
@stdoutwriter_class = internal constant { ptr, ptr, ptr, i32, i32, i32, i32, ptr, ptr, ptr, ptr, i32, [4 x i8] } { ptr @.str, ptr @stdoutwriter_get_name, ptr null, i32 0, i32 0, i32 0, i32 0, ptr null, ptr null, ptr null, ptr null, i32 0, [4 x i8] zeroinitializer }, align 8
@.str.4 = private unnamed_addr constant [3 x i8] c"%s\00", align 1
@stdout = external local_unnamed_addr global ptr, align 8

; Function Attrs: nounwind uwtable
define i32 @avtextwriter_create_stdout(ptr noundef %0) local_unnamed_addr #0 {
  %2 = tail call i32 @avtextwriter_context_open(ptr noundef %0, ptr noundef nonnull @avtextwriter_stdout) #6
  ret i32 %2
}

declare i32 @avtextwriter_context_open(ptr noundef, ptr noundef) local_unnamed_addr #1

; Function Attrs: inlinehint nofree nounwind uwtable
define internal void @stdout_w8(ptr readnone captures(none) %0, i32 noundef %1) #2 {
  %putchar = tail call i32 @putchar(i32 %1)
  ret void
}

; Function Attrs: inlinehint nofree nounwind uwtable
define internal void @stdout_put_str(ptr readnone captures(none) %0, ptr noundef %1) #2 {
  %3 = tail call i32 (ptr, ...) @printf(ptr noundef nonnull dereferenceable(1) @.str.4, ptr noundef %1)
  ret void
}

; Function Attrs: inlinehint nofree nounwind uwtable
define internal void @stdout_vprintf(ptr readnone captures(none) %0, ptr noundef readonly captures(none) %1, ptr noundef %2) #2 {
  %4 = load ptr, ptr @stdout, align 8, !tbaa !4, !noalias !9
  %5 = tail call i32 @vfprintf(ptr noundef %4, ptr noundef %1, ptr noundef %2) #6
  ret void
}

; Function Attrs: mustprogress nofree norecurse nosync nounwind willreturn memory(none) uwtable
define internal noundef nonnull ptr @stdoutwriter_get_name(ptr readnone captures(none) %0) #3 {
  ret ptr @.str
}

; Function Attrs: nofree nounwind
declare noundef i32 @printf(ptr noundef readonly captures(none), ...) local_unnamed_addr #4

; Function Attrs: nofree nounwind
declare noundef i32 @vfprintf(ptr noundef captures(none), ptr noundef readonly captures(none), ptr noundef) local_unnamed_addr #4

; Function Attrs: nofree nounwind
declare noundef i32 @putchar(i32 noundef) local_unnamed_addr #5


!llvm.module.flags = !{!0, !1, !2, !3}

!0 = !{i32 1, !"wchar_size", i32 4}
!1 = !{i32 8, !"PIC Level", i32 2}
!2 = !{i32 7, !"uwtable", i32 2}
!3 = !{i32 1, !"override-stack-alignment", i32 16}
!4 = !{!5, !5, i64 0}
!5 = !{!"p1 _ZTS8_IO_FILE", !6, i64 0}
!6 = !{!"any pointer", !7, i64 0}
!7 = !{!"omnipotent char", !8, i64 0}
!8 = !{!"Simple C/C++ TBAA"}
!9 = !{!10}
!10 = distinct !{!10, !11, !"vprintf: argument 0"}
!11 = distinct !{!11, !"vprintf"}
